; Function Attrs: mustprogress uwtable
define internal void @_ZNK7doctest6detail12ContextScopeIZN12_GLOBAL__N_120DOCTEST_ANON_CLASS_91fEvEUlPSoE1_E9stringifyES4_(ptr noundef nonnull readonly align 8 captures(none) dereferenceable(24) %0, ptr noundef %1) unnamed_addr #6 align 2 personality ptr @__gxx_personality_v0 {
  %3 = alloca %"struct.doctest::detail::MessageBuilder", align 8
  call void @llvm.lifetime.start.p0(i64 56, ptr nonnull %3)
  call void @_ZN7doctest6detail14MessageBuilderC1EPKciNS_10assertType4EnumE(ptr noundef nonnull align 8 dereferenceable(49) %3, ptr noundef nonnull @.str.58, i32 noundef 146, i32 noundef 1)
  %4 = getelementptr inbounds nuw i8, ptr %3, i64 40
  store ptr %1, ptr %4, align 8
  %5 = invoke noundef nonnull align 8 dereferenceable(49) ptr @_ZN7doctest6detail14MessageBuildercmIA19_cEERS1_RKT_(ptr noundef nonnull align 8 dereferenceable(49) %3, ptr noundef nonnull align 1 dereferenceable(19) @.str.138)
          to label %_ZN7doctest6detail14MessageBuildermlIA19_cEERS1_RKT_.exit.i unwind label %9

_ZN7doctest6detail14MessageBuildermlIA19_cEERS1_RKT_.exit.i: ; preds = %2
  %6 = getelementptr inbounds nuw i8, ptr %0, i64 16
  %7 = load ptr, ptr %6, align 8
  %8 = invoke noundef nonnull align 8 dereferenceable(49) ptr @_ZN7doctest6detail14MessageBuildercmIN4Luau8PositionEEERS1_RKT_(ptr noundef nonnull align 8 dereferenceable(49) %5, ptr noundef nonnull align 4 dereferenceable(8) %7)
          to label %_ZZN12_GLOBAL__N_120DOCTEST_ANON_CLASS_91fEvENKUlPSoE1_clES1_.exit unwind label %9

9:                                                ; preds = %_ZN7doctest6detail14MessageBuildermlIA19_cEERS1_RKT_.exit.i, %2
  %10 = landingpad { ptr, i32 }
          cleanup
  call void @_ZN7doctest6detail14MessageBuilderD1Ev(ptr noundef nonnull align 8 dereferenceable(49) %3) #18
  resume { ptr, i32 } %10

_ZZN12_GLOBAL__N_120DOCTEST_ANON_CLASS_91fEvENKUlPSoE1_clES1_.exit: ; preds = %_ZN7doctest6detail14MessageBuildermlIA19_cEERS1_RKT_.exit.i
  call void @_ZN7doctest6detail14MessageBuilderD1Ev(ptr noundef nonnull align 8 dereferenceable(49) %3) #18
  call void @llvm.lifetime.end.p0(i64 56, ptr nonnull %3)
  ret void
}